target datalayout = "e-m:e-p270:32:32-p271:32:32-p272:64:64-i64:64-i128:128-f80:128-n8:16:32:64-S128"
target triple = "x86_64-pc-linux-gnu"

%struct._object = type { %union.anon, ptr }
%union.anon = type { i64 }
%struct.anon = type { i32, i32 }

@_testcapimodule = internal global ptr null, align 8
@.str.7 = private unnamed_addr constant [18 x i8] c"HeapCTypeSubclass\00", align 1
@.str.18 = private unnamed_addr constant [31 x i8] c"HeapCTypeSubclassWithFinalizer\00", align 1
@.str.147 = private unnamed_addr constant [10 x i8] c"__class__\00", align 1
@.str.148 = private unnamed_addr constant [14 x i8] c"refcnt_in_del\00", align 1

; Function Attrs: alwaysinline nounwind uwtable
define internal i32 @_Py_IsImmortal(ptr noundef %0) #3 {
  %2 = alloca ptr, align 8
  store ptr %0, ptr %2, align 8, !tbaa !3
  %3 = load ptr, ptr %2, align 8, !tbaa !3
  %4 = getelementptr inbounds nuw %struct._object, ptr %3, i32 0, i32 0
  %5 = getelementptr inbounds nuw %struct.anon, ptr %4, i32 0, i32 0
  %6 = load i32, ptr %5, align 8, !tbaa !12
  %7 = icmp slt i32 %6, 0
  %8 = zext i1 %7 to i32
  ret i32 %8
}

; Function Attrs: inlinehint nounwind uwtable
define internal void @Py_XDECREF(ptr noundef %0) #4 {
  %2 = alloca ptr, align 8
  store ptr %0, ptr %2, align 8, !tbaa !3
  %3 = load ptr, ptr %2, align 8, !tbaa !3
  %4 = icmp ne ptr %3, null
  br i1 %4, label %5, label %7

5:                                                ; preds = %1
  %6 = load ptr, ptr %2, align 8, !tbaa !3
  call void @Py_DECREF(ptr noundef %6)
  br label %7

7:                                                ; preds = %5, %1
  ret void
}

; Function Attrs: alwaysinline nounwind uwtable
define internal void @Py_DECREF(ptr noundef %0) #3 {
  %2 = alloca ptr, align 8
  store ptr %0, ptr %2, align 8, !tbaa !3
  %3 = load ptr, ptr %2, align 8, !tbaa !3
  %4 = call i32 @_Py_IsImmortal(ptr noundef %3)
  %5 = icmp ne i32 %4, 0
  br i1 %5, label %6, label %7

6:                                                ; preds = %1
  br label %16

7:                                                ; preds = %1
  %8 = load ptr, ptr %2, align 8, !tbaa !3
  %9 = getelementptr inbounds nuw %struct._object, ptr %8, i32 0, i32 0
  %10 = getelementptr inbounds nuw %struct.anon, ptr %9, i32 0, i32 0
  %11 = load i32, ptr %10, align 8, !tbaa !12
  %12 = add i32 %11, -1
  store i32 %12, ptr %10, align 8, !tbaa !12
  %13 = icmp eq i32 %12, 0
  br i1 %13, label %14, label %16

14:                                               ; preds = %7
  %15 = load ptr, ptr %2, align 8, !tbaa !3
  call void @_Py_Dealloc(ptr noundef %15)
  br label %16

16:                                               ; preds = %6, %14, %7
  ret void
}

; Function Attrs: inlinehint nounwind uwtable
define internal i64 @_Py_REFCNT(ptr noundef %0) #4 {
  %2 = alloca ptr, align 8
  store ptr %0, ptr %2, align 8, !tbaa !3
  %3 = load ptr, ptr %2, align 8, !tbaa !3
  %4 = getelementptr inbounds nuw %struct._object, ptr %3, i32 0, i32 0
  %5 = getelementptr inbounds nuw %struct.anon, ptr %4, i32 0, i32 0
  %6 = load i32, ptr %5, align 8, !tbaa !12
  %7 = zext i32 %6 to i64
  ret i64 %7
}

; Function Attrs: nounwind uwtable
define internal void @heapctypesubclasswithfinalizer_finalize(ptr noundef %0) #0 {
  %2 = alloca ptr, align 8
  %3 = alloca ptr, align 8
  %4 = alloca ptr, align 8
  %5 = alloca ptr, align 8
  %6 = alloca ptr, align 8
  %7 = alloca ptr, align 8
  store ptr %0, ptr %2, align 8, !tbaa !3
  call void @llvm.lifetime.start.p0(i64 8, ptr %3) #9
  store ptr null, ptr %3, align 8, !tbaa !3
  call void @llvm.lifetime.start.p0(i64 8, ptr %4) #9
  store ptr null, ptr %4, align 8, !tbaa !3
  call void @llvm.lifetime.start.p0(i64 8, ptr %5) #9
  store ptr null, ptr %5, align 8, !tbaa !3
  call void @llvm.lifetime.start.p0(i64 8, ptr %6) #9
  %8 = call ptr @PyErr_GetRaisedException()
  store ptr %8, ptr %6, align 8, !tbaa !3
  %9 = load ptr, ptr @_testcapimodule, align 8, !tbaa !8
  %10 = icmp eq ptr %9, null
  br i1 %10, label %11, label %12

11:                                               ; preds = %1
  br label %64

12:                                               ; preds = %1
  %13 = load ptr, ptr @_testcapimodule, align 8, !tbaa !8
  %14 = call ptr @PyState_FindModule(ptr noundef %13)
  store ptr %14, ptr %7, align 8, !tbaa !3
  %15 = load ptr, ptr %7, align 8, !tbaa !3
  %16 = icmp eq ptr %15, null
  br i1 %16, label %17, label %18

17:                                               ; preds = %12
  br label %64

18:                                               ; preds = %12
  %19 = load ptr, ptr %7, align 8, !tbaa !3
  %20 = call ptr @PyObject_GetAttrString(ptr noundef %19, ptr noundef @.str.18)
  store ptr %20, ptr %3, align 8, !tbaa !3
  %21 = load ptr, ptr %3, align 8, !tbaa !3
  %22 = icmp eq ptr %21, null
  br i1 %22, label %23, label %24

23:                                               ; preds = %18
  br label %64

24:                                               ; preds = %18
  %25 = load ptr, ptr %7, align 8, !tbaa !3
  %26 = call ptr @PyObject_GetAttrString(ptr noundef %25, ptr noundef @.str.7)
  store ptr %26, ptr %4, align 8, !tbaa !3
  %27 = load ptr, ptr %4, align 8, !tbaa !3
  %28 = icmp eq ptr %27, null
  br i1 %28, label %29, label %30

29:                                               ; preds = %24
  br label %64

30:                                               ; preds = %24
  %31 = load ptr, ptr %2, align 8, !tbaa !3
  %32 = load ptr, ptr %4, align 8, !tbaa !3
  %33 = call i32 @PyObject_SetAttrString(ptr noundef %31, ptr noundef @.str.147, ptr noundef %32)
  %34 = icmp slt i32 %33, 0
  br i1 %34, label %35, label %36

35:                                               ; preds = %30
  br label %64

36:                                               ; preds = %30
  %37 = load ptr, ptr %3, align 8, !tbaa !3
  %38 = call i64 @_Py_REFCNT(ptr noundef %37)
  %39 = call ptr @PyLong_FromSsize_t(i64 noundef %38)
  store ptr %39, ptr %5, align 8, !tbaa !3
  %40 = load ptr, ptr %5, align 8, !tbaa !3
  %41 = icmp eq ptr %40, null
  br i1 %41, label %42, label %43

42:                                               ; preds = %36
  br label %64

43:                                               ; preds = %36
  %44 = load ptr, ptr %3, align 8, !tbaa !3
  %45 = load ptr, ptr %5, align 8, !tbaa !3
  %46 = call i32 @PyObject_SetAttrString(ptr noundef %44, ptr noundef @.str.148, ptr noundef %45)
  %47 = icmp slt i32 %46, 0
  br i1 %47, label %48, label %49

48:                                               ; preds = %43
  br label %64

49:                                               ; preds = %43
  %50 = load ptr, ptr %5, align 8, !tbaa !3
  call void @Py_DECREF(ptr noundef %50)
  %51 = load ptr, ptr %4, align 8, !tbaa !3
  %52 = call i64 @_Py_REFCNT(ptr noundef %51)
  %53 = call ptr @PyLong_FromSsize_t(i64 noundef %52)
  store ptr %53, ptr %5, align 8, !tbaa !3
  %54 = load ptr, ptr %5, align 8, !tbaa !3
  %55 = icmp eq ptr %54, null
  br i1 %55, label %56, label %57

56:                                               ; preds = %49
  br label %64

57:                                               ; preds = %49
  %58 = load ptr, ptr %4, align 8, !tbaa !3
  %59 = load ptr, ptr %5, align 8, !tbaa !3
  %60 = call i32 @PyObject_SetAttrString(ptr noundef %58, ptr noundef @.str.148, ptr noundef %59)
  %61 = icmp slt i32 %60, 0
  br i1 %61, label %62, label %63

62:                                               ; preds = %57
  br label %64

63:                                               ; preds = %57
  br label %64

64:                                               ; preds = %63, %62, %56, %48, %42, %35, %29, %23, %17, %11
  %65 = load ptr, ptr %3, align 8, !tbaa !3
  call void @Py_XDECREF(ptr noundef %65)
  %66 = load ptr, ptr %4, align 8, !tbaa !3
  call void @Py_XDECREF(ptr noundef %66)
  %67 = load ptr, ptr %5, align 8, !tbaa !3
  call void @Py_XDECREF(ptr noundef %67)
  %68 = load ptr, ptr %6, align 8, !tbaa !3
  call void @PyErr_SetRaisedException(ptr noundef %68)
  call void @llvm.lifetime.end.p0(i64 8, ptr %6) #9
  call void @llvm.lifetime.end.p0(i64 8, ptr %5) #9
  call void @llvm.lifetime.end.p0(i64 8, ptr %4) #9
  call void @llvm.lifetime.end.p0(i64 8, ptr %3) #9
  ret void
}