; Function Attrs: nounwind uwtable
define internal void @heapctypesubclasswithfinalizer_finalize(ptr noundef %0) #0 {
  %2 = tail call ptr @PyErr_GetRaisedException() #8
  %3 = load ptr, ptr @_testcapimodule, align 8, !tbaa !3
  %4 = icmp eq ptr %3, null
  br i1 %4, label %Py_XDECREF.exit38, label %5

5:                                                ; preds = %1
  %6 = tail call ptr @PyState_FindModule(ptr noundef nonnull %3) #8
  %7 = icmp eq ptr %6, null
  br i1 %7, label %Py_XDECREF.exit38, label %8

8:                                                ; preds = %5
  %9 = tail call ptr @PyObject_GetAttrString(ptr noundef nonnull %6, ptr noundef nonnull @.str.18) #8
  %10 = icmp eq ptr %9, null
  br i1 %10, label %Py_XDECREF.exit38, label %11

11:                                               ; preds = %8
  %12 = tail call ptr @PyObject_GetAttrString(ptr noundef nonnull %6, ptr noundef nonnull @.str.7) #8
  %13 = icmp eq ptr %12, null
  br i1 %13, label %35, label %14

14:                                               ; preds = %11
  %15 = tail call i32 @PyObject_SetAttrString(ptr noundef %0, ptr noundef nonnull @.str.147, ptr noundef nonnull %12) #8
  %16 = icmp slt i32 %15, 0
  br i1 %16, label %35, label %17

17:                                               ; preds = %14
  %.val = load i32, ptr %9, align 8, !tbaa !8
  %18 = zext i32 %.val to i64
  %19 = tail call ptr @PyLong_FromSsize_t(i64 noundef %18) #8
  %20 = icmp eq ptr %19, null
  br i1 %20, label %35, label %21

21:                                               ; preds = %17
  %22 = tail call i32 @PyObject_SetAttrString(ptr noundef nonnull %9, ptr noundef nonnull @.str.148, ptr noundef nonnull %19) #8
  %23 = icmp slt i32 %22, 0
  br i1 %23, label %35, label %24

24:                                               ; preds = %21
  %25 = load i32, ptr %19, align 8, !tbaa !8
  %.not.i = icmp sgt i32 %25, -1
  br i1 %.not.i, label %26, label %Py_DECREF.exit

26:                                               ; preds = %24
  %27 = add nsw i32 %25, -1
  store i32 %27, ptr %19, align 8, !tbaa !8
  %28 = icmp eq i32 %27, 0
  br i1 %28, label %29, label %Py_DECREF.exit

29:                                               ; preds = %26
  tail call void @_Py_Dealloc(ptr noundef nonnull %19) #8
  br label %Py_DECREF.exit

Py_DECREF.exit:                                   ; preds = %24, %26, %29
  %.val31 = load i32, ptr %12, align 8, !tbaa !8
  %30 = zext i32 %.val31 to i64
  %31 = tail call ptr @PyLong_FromSsize_t(i64 noundef %30) #8
  %32 = icmp eq ptr %31, null
  br i1 %32, label %35, label %33

33:                                               ; preds = %Py_DECREF.exit
  %34 = tail call i32 @PyObject_SetAttrString(ptr noundef nonnull %12, ptr noundef nonnull @.str.148, ptr noundef nonnull %31) #8
  br label %35

35:                                               ; preds = %11, %14, %17, %21, %Py_DECREF.exit, %33
  %.021.ph = phi ptr [ %31, %33 ], [ null, %Py_DECREF.exit ], [ %19, %21 ], [ null, %17 ], [ null, %14 ], [ null, %11 ]
  %36 = load i32, ptr %9, align 8, !tbaa !8
  %.not.i.i = icmp sgt i32 %36, -1
  br i1 %.not.i.i, label %37, label %Py_XDECREF.exit

37:                                               ; preds = %35
  %38 = add nsw i32 %36, -1
  store i32 %38, ptr %9, align 8, !tbaa !8
  %39 = icmp eq i32 %38, 0
  br i1 %39, label %40, label %Py_XDECREF.exit

40:                                               ; preds = %37
  tail call void @_Py_Dealloc(ptr noundef nonnull %9) #8
  br label %Py_XDECREF.exit

Py_XDECREF.exit:                                  ; preds = %35, %37, %40
  br i1 %13, label %Py_XDECREF.exit35, label %41

41:                                               ; preds = %Py_XDECREF.exit
  %42 = load i32, ptr %12, align 8, !tbaa !8
  %.not.i.i34 = icmp sgt i32 %42, -1
  br i1 %.not.i.i34, label %43, label %Py_XDECREF.exit35

43:                                               ; preds = %41
  %44 = add nsw i32 %42, -1
  store i32 %44, ptr %12, align 8, !tbaa !8
  %45 = icmp eq i32 %44, 0
  br i1 %45, label %46, label %Py_XDECREF.exit35

46:                                               ; preds = %43
  tail call void @_Py_Dealloc(ptr noundef nonnull %12) #8
  br label %Py_XDECREF.exit35

Py_XDECREF.exit35:                                ; preds = %Py_XDECREF.exit, %41, %43, %46
  %.not.i36 = icmp eq ptr %.021.ph, null
  br i1 %.not.i36, label %Py_XDECREF.exit38, label %47

47:                                               ; preds = %Py_XDECREF.exit35
  %48 = load i32, ptr %.021.ph, align 8, !tbaa !8
  %.not.i.i37 = icmp sgt i32 %48, -1
  br i1 %.not.i.i37, label %49, label %Py_XDECREF.exit38

49:                                               ; preds = %47
  %50 = add nsw i32 %48, -1
  store i32 %50, ptr %.021.ph, align 8, !tbaa !8
  %51 = icmp eq i32 %50, 0
  br i1 %51, label %52, label %Py_XDECREF.exit38

52:                                               ; preds = %49
  tail call void @_Py_Dealloc(ptr noundef nonnull %.021.ph) #8
  br label %Py_XDECREF.exit38

Py_XDECREF.exit38:                                ; preds = %1, %5, %8, %Py_XDECREF.exit35, %47, %49, %52
  tail call void @PyErr_SetRaisedException(ptr noundef %2) #8
  ret void
}